; Function Attrs: mustprogress uwtable
define void @_ZN6duckdb22ListAggregatesBindDataC2ERKNS_11LogicalTypeENS_10unique_ptrINS_10ExpressionESt14default_deleteIS5_ELb1EEE(ptr noundef nonnull align 8 dereferenceable(40) initializes((0, 8)) %0, ptr noundef nonnull align 8 dereferenceable(24) %1, ptr noundef captures(none) %2) unnamed_addr #3 align 2 personality ptr @__gxx_personality_v0 {
  store ptr getelementptr inbounds nuw inrange(-16, 32) (i8, ptr @_ZTVN6duckdb22ListAggregatesBindDataE, i64 16), ptr %0, align 8, !tbaa !87
  %4 = getelementptr inbounds nuw i8, ptr %0, i64 8
  invoke void @_ZN6duckdb11LogicalTypeC1ERKS0_(ptr noundef nonnull align 8 dereferenceable(24) %4, ptr noundef nonnull align 8 dereferenceable(24) %1)
          to label %5 unwind label %8

5:                                                ; preds = %3
  %6 = getelementptr inbounds nuw i8, ptr %0, i64 32
  %7 = load i64, ptr %2, align 8, !tbaa !94
  store i64 %7, ptr %6, align 8, !tbaa !94
  store ptr null, ptr %2, align 8, !tbaa !94
  ret void

8:                                                ; preds = %3
  %9 = landingpad { ptr, i32 }
          cleanup
  tail call void @_ZN6duckdb12FunctionDataD2Ev(ptr noundef nonnull align 8 dereferenceable(8) %0) #27
  resume { ptr, i32 } %9
}